; Function Attrs: nounwind uwtable
define ptr @glfwSetJoystickCallback(ptr noundef %0) local_unnamed_addr #0 {
  %2 = load i32, ptr @_glfw, align 8, !tbaa !170
  %.not = icmp eq i32 %2, 0
  br i1 %.not, label %3, label %4

3:                                                ; preds = %1
  tail call void (i32, ptr, ...) @_glfwInputError(i32 noundef 65537, ptr noundef null) #12
  br label %12

4:                                                ; preds = %1
  %5 = load i32, ptr getelementptr inbounds nuw (i8, ptr @_glfw, i64 1932), align 4, !tbaa !197
  %.not.i = icmp eq i32 %5, 0
  br i1 %.not.i, label %6, label %10

6:                                                ; preds = %4
  %7 = load ptr, ptr getelementptr inbounds nuw (i8, ptr @_glfw, i64 168), align 8, !tbaa !198
  %8 = tail call i32 %7() #12
  %.not1.i = icmp eq i32 %8, 0
  br i1 %.not1.i, label %initJoysticks.exit.thread, label %10

initJoysticks.exit.thread:                        ; preds = %6
  %9 = load ptr, ptr getelementptr inbounds nuw (i8, ptr @_glfw, i64 176), align 8, !tbaa !199
  tail call void %9() #12
  br label %12

10:                                               ; preds = %6, %4
  store i32 1, ptr getelementptr inbounds nuw (i8, ptr @_glfw, i64 1932), align 4, !tbaa !197
  %11 = load ptr, ptr getelementptr inbounds nuw (i8, ptr @_glfw, i64 133880), align 8, !tbaa !68
  store ptr %0, ptr getelementptr inbounds nuw (i8, ptr @_glfw, i64 133880), align 8, !tbaa !68
  br label %12

12:                                               ; preds = %initJoysticks.exit.thread, %10, %3
  %.0 = phi ptr [ %11, %10 ], [ null, %3 ], [ null, %initJoysticks.exit.thread ]
  ret ptr %.0
}